; ModuleID = '19/1983.c'
source_filename = "19/1983.c"
target datalayout = "e-m:e-p270:32:32-p271:32:32-p272:64:64-i64:64-f80:128-n8:16:32:64-S128"
target triple = "x86_64-pc-linux-gnu"

@.str = private unnamed_addr constant [4 x i8] c"%s\0A\00", align 1
@.str.1 = private unnamed_addr constant [3 x i8] c"%s\00", align 1
@.str.2 = private unnamed_addr constant [4 x i8] c" %s\00", align 1
@.str.3 = private unnamed_addr constant [2 x i8] c"\0A\00", align 1

; Function Attrs: noinline nounwind uwtable
define dso_local i32 @main() #0 {
  %1 = alloca i32, align 4
  %2 = alloca [100 x i8], align 16
  %3 = alloca [100 x i8], align 16
  %4 = alloca [100 x i8], align 16
  %5 = alloca [100 x [100 x i8]], align 16
  %6 = alloca i32, align 4
  %7 = alloca i32, align 4
  %8 = alloca i32, align 4
  %9 = alloca i32, align 4
  %10 = alloca i32, align 4
  %11 = alloca i32, align 4
  %12 = alloca i32, align 4
  store i32 0, i32* %1, align 4
  %13 = getelementptr inbounds [100 x i8], [100 x i8]* %2, i64 0, i64 0
  %14 = call i32 (i8*, ...) bitcast (i32 (...)* @gets to i32 (i8*, ...)*)(i8* %13)
  %15 = getelementptr inbounds [100 x i8], [100 x i8]* %2, i64 0, i64 0
  %16 = call i64 @strlen(i8* %15) #3
  %17 = trunc i64 %16 to i32
  store i32 %17, i32* %6, align 4
  %18 = getelementptr inbounds [100 x i8], [100 x i8]* %3, i64 0, i64 0
  %19 = call i32 (i8*, ...) bitcast (i32 (...)* @gets to i32 (i8*, ...)*)(i8* %18)
  %20 = getelementptr inbounds [100 x i8], [100 x i8]* %4, i64 0, i64 0
  %21 = call i32 (i8*, ...) bitcast (i32 (...)* @gets to i32 (i8*, ...)*)(i8* %20)
  %22 = getelementptr inbounds [100 x i8], [100 x i8]* %4, i64 0, i64 0
  %23 = call i64 @strlen(i8* %22) #3
  %24 = trunc i64 %23 to i32
  store i32 %24, i32* %7, align 4
  store i32 0, i32* %8, align 4
  store i32 0, i32* %9, align 4
  store i32 0, i32* %10, align 4
  br label %25

25:                                               ; preds = %60, %0
  %26 = load i32, i32* %9, align 4
  %27 = load i32, i32* %6, align 4
  %28 = icmp slt i32 %26, %27
  br i1 %28, label %29, label %63

29:                                               ; preds = %25
  %30 = load i32, i32* %9, align 4
  %31 = sext i32 %30 to i64
  %32 = getelementptr inbounds [100 x i8], [100 x i8]* %2, i64 0, i64 %31
  %33 = load i8, i8* %32, align 1
  %34 = load i32, i32* %8, align 4
  %35 = sext i32 %34 to i64
  %36 = getelementptr inbounds [100 x [100 x i8]], [100 x [100 x i8]]* %5, i64 0, i64 %35
  %37 = load i32, i32* %10, align 4
  %38 = add nsw i32 %37, 1
  store i32 %38, i32* %10, align 4
  %39 = sext i32 %37 to i64
  %40 = getelementptr inbounds [100 x i8], [100 x i8]* %36, i64 0, i64 %39
  store i8 %33, i8* %40, align 1
  %41 = load i32, i32* %9, align 4
  %42 = add nsw i32 %41, 1
  %43 = sext i32 %42 to i64
  %44 = getelementptr inbounds [100 x i8], [100 x i8]* %2, i64 0, i64 %43
  %45 = load i8, i8* %44, align 1
  %46 = sext i8 %45 to i32
  %47 = icmp eq i32 %46, 32
  br i1 %47, label %48, label %59

48:                                               ; preds = %29
  %49 = load i32, i32* %9, align 4
  %50 = add nsw i32 %49, 1
  store i32 %50, i32* %9, align 4
  %51 = load i32, i32* %8, align 4
  %52 = sext i32 %51 to i64
  %53 = getelementptr inbounds [100 x [100 x i8]], [100 x [100 x i8]]* %5, i64 0, i64 %52
  %54 = load i32, i32* %10, align 4
  %55 = sext i32 %54 to i64
  %56 = getelementptr inbounds [100 x i8], [100 x i8]* %53, i64 0, i64 %55
  store i8 0, i8* %56, align 1
  %57 = load i32, i32* %8, align 4
  %58 = add nsw i32 %57, 1
  store i32 %58, i32* %8, align 4
  store i32 0, i32* %10, align 4
  br label %59

59:                                               ; preds = %48, %29
  br label %60

60:                                               ; preds = %59
  %61 = load i32, i32* %9, align 4
  %62 = add nsw i32 %61, 1
  store i32 %62, i32* %9, align 4
  br label %25

63:                                               ; preds = %25
  %64 = load i32, i32* %8, align 4
  %65 = sext i32 %64 to i64
  %66 = getelementptr inbounds [100 x [100 x i8]], [100 x [100 x i8]]* %5, i64 0, i64 %65
  %67 = load i32, i32* %10, align 4
  %68 = sext i32 %67 to i64
  %69 = getelementptr inbounds [100 x i8], [100 x i8]* %66, i64 0, i64 %68
  store i8 0, i8* %69, align 1
  %70 = load i32, i32* %8, align 4
  store i32 %70, i32* %11, align 4
  store i32 0, i32* %12, align 4
  store i32 0, i32* %8, align 4
  br label %71

71:                                               ; preds = %111, %63
  %72 = load i32, i32* %8, align 4
  %73 = load i32, i32* %11, align 4
  %74 = add nsw i32 %73, 1
  %75 = icmp slt i32 %72, %74
  br i1 %75, label %76, label %114

76:                                               ; preds = %71
  %77 = load i32, i32* %8, align 4
  %78 = sext i32 %77 to i64
  %79 = getelementptr inbounds [100 x [100 x i8]], [100 x [100 x i8]]* %5, i64 0, i64 %78
  %80 = getelementptr inbounds [100 x i8], [100 x i8]* %79, i64 0, i64 0
  %81 = getelementptr inbounds [100 x i8], [100 x i8]* %3, i64 0, i64 0
  %82 = call i32 @strcmp(i8* %80, i8* %81) #3
  %83 = icmp eq i32 %82, 0
  br i1 %83, label %84, label %110

84:                                               ; preds = %76
  store i32 0, i32* %9, align 4
  br label %85

85:                                               ; preds = %100, %84
  %86 = load i32, i32* %9, align 4
  %87 = load i32, i32* %7, align 4
  %88 = icmp slt i32 %86, %87
  br i1 %88, label %89, label %103

89:                                               ; preds = %85
  %90 = load i32, i32* %9, align 4
  %91 = sext i32 %90 to i64
  %92 = getelementptr inbounds [100 x i8], [100 x i8]* %4, i64 0, i64 %91
  %93 = load i8, i8* %92, align 1
  %94 = load i32, i32* %8, align 4
  %95 = sext i32 %94 to i64
  %96 = getelementptr inbounds [100 x [100 x i8]], [100 x [100 x i8]]* %5, i64 0, i64 %95
  %97 = load i32, i32* %9, align 4
  %98 = sext i32 %97 to i64
  %99 = getelementptr inbounds [100 x i8], [100 x i8]* %96, i64 0, i64 %98
  store i8 %93, i8* %99, align 1
  br label %100

100:                                              ; preds = %89
  %101 = load i32, i32* %9, align 4
  %102 = add nsw i32 %101, 1
  store i32 %102, i32* %9, align 4
  br label %85

103:                                              ; preds = %85
  %104 = load i32, i32* %8, align 4
  %105 = sext i32 %104 to i64
  %106 = getelementptr inbounds [100 x [100 x i8]], [100 x [100 x i8]]* %5, i64 0, i64 %105
  %107 = load i32, i32* %7, align 4
  %108 = sext i32 %107 to i64
  %109 = getelementptr inbounds [100 x i8], [100 x i8]* %106, i64 0, i64 %108
  store i8 0, i8* %109, align 1
  store i32 1, i32* %12, align 4
  br label %110

110:                                              ; preds = %103, %76
  br label %111

111:                                              ; preds = %110
  %112 = load i32, i32* %8, align 4
  %113 = add nsw i32 %112, 1
  store i32 %113, i32* %8, align 4
  br label %71

114:                                              ; preds = %71
  %115 = load i32, i32* %12, align 4
  %116 = icmp eq i32 %115, 0
  br i1 %116, label %117, label %120

117:                                              ; preds = %114
  %118 = getelementptr inbounds [100 x i8], [100 x i8]* %2, i64 0, i64 0
  %119 = call i32 (i8*, ...) @printf(i8* getelementptr inbounds ([4 x i8], [4 x i8]* @.str, i64 0, i64 0), i8* %118)
  br label %140

120:                                              ; preds = %114
  %121 = getelementptr inbounds [100 x [100 x i8]], [100 x [100 x i8]]* %5, i64 0, i64 0
  %122 = getelementptr inbounds [100 x i8], [100 x i8]* %121, i64 0, i64 0
  %123 = call i32 (i8*, ...) @printf(i8* getelementptr inbounds ([3 x i8], [3 x i8]* @.str.1, i64 0, i64 0), i8* %122)
  store i32 1, i32* %8, align 4
  br label %124

124:                                              ; preds = %135, %120
  %125 = load i32, i32* %8, align 4
  %126 = load i32, i32* %11, align 4
  %127 = add nsw i32 %126, 1
  %128 = icmp slt i32 %125, %127
  br i1 %128, label %129, label %138

129:                                              ; preds = %124
  %130 = load i32, i32* %8, align 4
  %131 = sext i32 %130 to i64
  %132 = getelementptr inbounds [100 x [100 x i8]], [100 x [100 x i8]]* %5, i64 0, i64 %131
  %133 = getelementptr inbounds [100 x i8], [100 x i8]* %132, i64 0, i64 0
  %134 = call i32 (i8*, ...) @printf(i8* getelementptr inbounds ([4 x i8], [4 x i8]* @.str.2, i64 0, i64 0), i8* %133)
  br label %135

135:                                              ; preds = %129
  %136 = load i32, i32* %8, align 4
  %137 = add nsw i32 %136, 1
  store i32 %137, i32* %8, align 4
  br label %124

138:                                              ; preds = %124
  %139 = call i32 (i8*, ...) @printf(i8* getelementptr inbounds ([2 x i8], [2 x i8]* @.str.3, i64 0, i64 0))
  br label %140

140:                                              ; preds = %138, %117
  ret i32 0
}

declare dso_local i32 @gets(...) #1

; Function Attrs: nounwind readonly
declare dso_local i64 @strlen(i8*) #2

; Function Attrs: nounwind readonly
declare dso_local i32 @strcmp(i8*, i8*) #2

declare dso_local i32 @printf(i8*, ...) #1


!llvm.module.flags = !{!0}
!llvm.ident = !{!1}

!0 = !{i32 1, !"wchar_size", i32 4}
!1 = !{!"clang version 10.0.0-4ubuntu1 "}
